target datalayout = "e-m:e-p270:32:32-p271:32:32-p272:64:64-i64:64-i128:128-f80:128-n8:16:32:64-S128"
target triple = "x86_64-pc-linux-gnu"

; Function Attrs: nounwind uwtable
define internal void @set2(ptr noundef %0, i32 noundef %1, i32 noundef %2) #0 {
  %4 = alloca ptr, align 8
  %5 = alloca i32, align 4
  %6 = alloca i32, align 4
  store ptr %0, ptr %4, align 8, !tbaa !4
  store i32 %1, ptr %5, align 4, !tbaa !33
  store i32 %2, ptr %6, align 4, !tbaa !33
  %7 = load ptr, ptr %4, align 8, !tbaa !4
  %8 = load i32, ptr %5, align 4, !tbaa !33
  call void @lua_rawseti(ptr noundef %7, i32 noundef 1, i32 noundef %8)
  %9 = load ptr, ptr %4, align 8, !tbaa !4
  %10 = load i32, ptr %6, align 4, !tbaa !33
  call void @lua_rawseti(ptr noundef %9, i32 noundef 1, i32 noundef %10)
  ret void
}

; Function Attrs: nounwind uwtable
define internal void @auxsort(ptr noundef %0, i32 noundef %1, i32 noundef %2) #0 {
  %4 = alloca ptr, align 8
  %5 = alloca i32, align 4
  %6 = alloca i32, align 4
  %7 = alloca i32, align 4
  %8 = alloca i32, align 4
  %9 = alloca i32, align 4
  store ptr %0, ptr %4, align 8, !tbaa !4
  store i32 %1, ptr %5, align 4, !tbaa !33
  store i32 %2, ptr %6, align 4, !tbaa !33
  br label %10

10:                                               ; preds = %161, %3
  %11 = load i32, ptr %5, align 4, !tbaa !33
  %12 = load i32, ptr %6, align 4, !tbaa !33
  %13 = icmp slt i32 %11, %12
  br i1 %13, label %14, label %162

14:                                               ; preds = %10
  call void @llvm.lifetime.start.p0(i64 4, ptr %7) #7
  call void @llvm.lifetime.start.p0(i64 4, ptr %8) #7
  %15 = load ptr, ptr %4, align 8, !tbaa !4
  %16 = load i32, ptr %5, align 4, !tbaa !33
  call void @lua_rawgeti(ptr noundef %15, i32 noundef 1, i32 noundef %16)
  %17 = load ptr, ptr %4, align 8, !tbaa !4
  %18 = load i32, ptr %6, align 4, !tbaa !33
  call void @lua_rawgeti(ptr noundef %17, i32 noundef 1, i32 noundef %18)
  %19 = load ptr, ptr %4, align 8, !tbaa !4
  %20 = call i32 @sort_comp(ptr noundef %19, i32 noundef -1, i32 noundef -2)
  %21 = icmp ne i32 %20, 0
  br i1 %21, label %22, label %26

22:                                               ; preds = %14
  %23 = load ptr, ptr %4, align 8, !tbaa !4
  %24 = load i32, ptr %5, align 4, !tbaa !33
  %25 = load i32, ptr %6, align 4, !tbaa !33
  call void @set2(ptr noundef %23, i32 noundef %24, i32 noundef %25)
  br label %28

26:                                               ; preds = %14
  %27 = load ptr, ptr %4, align 8, !tbaa !4
  call void @lua_settop(ptr noundef %27, i32 noundef -3)
  br label %28

28:                                               ; preds = %26, %22
  %29 = load i32, ptr %6, align 4, !tbaa !33
  %30 = load i32, ptr %5, align 4, !tbaa !33
  %31 = sub nsw i32 %29, %30
  %32 = icmp eq i32 %31, 1
  br i1 %32, label %33, label %34

33:                                               ; preds = %28
  store i32 3, ptr %9, align 4
  br label %159

34:                                               ; preds = %28
  %35 = load i32, ptr %5, align 4, !tbaa !33
  %36 = load i32, ptr %6, align 4, !tbaa !33
  %37 = add nsw i32 %35, %36
  %38 = sdiv i32 %37, 2
  store i32 %38, ptr %7, align 4, !tbaa !33
  %39 = load ptr, ptr %4, align 8, !tbaa !4
  %40 = load i32, ptr %7, align 4, !tbaa !33
  call void @lua_rawgeti(ptr noundef %39, i32 noundef 1, i32 noundef %40)
  %41 = load ptr, ptr %4, align 8, !tbaa !4
  %42 = load i32, ptr %5, align 4, !tbaa !33
  call void @lua_rawgeti(ptr noundef %41, i32 noundef 1, i32 noundef %42)
  %43 = load ptr, ptr %4, align 8, !tbaa !4
  %44 = call i32 @sort_comp(ptr noundef %43, i32 noundef -2, i32 noundef -1)
  %45 = icmp ne i32 %44, 0
  br i1 %45, label %46, label %50

46:                                               ; preds = %34
  %47 = load ptr, ptr %4, align 8, !tbaa !4
  %48 = load i32, ptr %7, align 4, !tbaa !33
  %49 = load i32, ptr %5, align 4, !tbaa !33
  call void @set2(ptr noundef %47, i32 noundef %48, i32 noundef %49)
  br label %64

50:                                               ; preds = %34
  %51 = load ptr, ptr %4, align 8, !tbaa !4
  call void @lua_settop(ptr noundef %51, i32 noundef -2)
  %52 = load ptr, ptr %4, align 8, !tbaa !4
  %53 = load i32, ptr %6, align 4, !tbaa !33
  call void @lua_rawgeti(ptr noundef %52, i32 noundef 1, i32 noundef %53)
  %54 = load ptr, ptr %4, align 8, !tbaa !4
  %55 = call i32 @sort_comp(ptr noundef %54, i32 noundef -1, i32 noundef -2)
  %56 = icmp ne i32 %55, 0
  br i1 %56, label %57, label %61

57:                                               ; preds = %50
  %58 = load ptr, ptr %4, align 8, !tbaa !4
  %59 = load i32, ptr %7, align 4, !tbaa !33
  %60 = load i32, ptr %6, align 4, !tbaa !33
  call void @set2(ptr noundef %58, i32 noundef %59, i32 noundef %60)
  br label %63

61:                                               ; preds = %50
  %62 = load ptr, ptr %4, align 8, !tbaa !4
  call void @lua_settop(ptr noundef %62, i32 noundef -3)
  br label %63

63:                                               ; preds = %61, %57
  br label %64

64:                                               ; preds = %63, %46
  %65 = load i32, ptr %6, align 4, !tbaa !33
  %66 = load i32, ptr %5, align 4, !tbaa !33
  %67 = sub nsw i32 %65, %66
  %68 = icmp eq i32 %67, 2
  br i1 %68, label %69, label %70

69:                                               ; preds = %64
  store i32 3, ptr %9, align 4
  br label %159

70:                                               ; preds = %64
  %71 = load ptr, ptr %4, align 8, !tbaa !4
  %72 = load i32, ptr %7, align 4, !tbaa !33
  call void @lua_rawgeti(ptr noundef %71, i32 noundef 1, i32 noundef %72)
  %73 = load ptr, ptr %4, align 8, !tbaa !4
  call void @lua_pushvalue(ptr noundef %73, i32 noundef -1)
  %74 = load ptr, ptr %4, align 8, !tbaa !4
  %75 = load i32, ptr %6, align 4, !tbaa !33
  %76 = sub nsw i32 %75, 1
  call void @lua_rawgeti(ptr noundef %74, i32 noundef 1, i32 noundef %76)
  %77 = load ptr, ptr %4, align 8, !tbaa !4
  %78 = load i32, ptr %7, align 4, !tbaa !33
  %79 = load i32, ptr %6, align 4, !tbaa !33
  %80 = sub nsw i32 %79, 1
  call void @set2(ptr noundef %77, i32 noundef %78, i32 noundef %80)
  %81 = load i32, ptr %5, align 4, !tbaa !33
  store i32 %81, ptr %7, align 4, !tbaa !33
  %82 = load i32, ptr %6, align 4, !tbaa !33
  %83 = sub nsw i32 %82, 1
  store i32 %83, ptr %8, align 4, !tbaa !33
  br label %84

84:                                               ; preds = %122, %70
  br label %85

85:                                               ; preds = %98, %84
  %86 = load ptr, ptr %4, align 8, !tbaa !4
  %87 = load i32, ptr %7, align 4, !tbaa !33
  %88 = add nsw i32 %87, 1
  store i32 %88, ptr %7, align 4, !tbaa !33
  call void @lua_rawgeti(ptr noundef %86, i32 noundef 1, i32 noundef %88)
  %89 = load ptr, ptr %4, align 8, !tbaa !4
  %90 = call i32 @sort_comp(ptr noundef %89, i32 noundef -1, i32 noundef -2)
  %91 = icmp ne i32 %90, 0
  br i1 %91, label %92, label %100

92:                                               ; preds = %85
  %93 = load i32, ptr %7, align 4, !tbaa !33
  %94 = load i32, ptr %6, align 4, !tbaa !33
  %95 = icmp sge i32 %93, %94
  br i1 %95, label %96, label %98

96:                                               ; preds = %92
  %97 = load ptr, ptr %4, align 8, !tbaa !4
  call void @lj_err_caller(ptr noundef %97, i32 noundef 1496) #8
  unreachable

98:                                               ; preds = %92
  %99 = load ptr, ptr %4, align 8, !tbaa !4
  call void @lua_settop(ptr noundef %99, i32 noundef -2)
  br label %85, !llvm.loop !64

100:                                              ; preds = %85
  br label %101

101:                                              ; preds = %114, %100
  %102 = load ptr, ptr %4, align 8, !tbaa !4
  %103 = load i32, ptr %8, align 4, !tbaa !33
  %104 = add nsw i32 %103, -1
  store i32 %104, ptr %8, align 4, !tbaa !33
  call void @lua_rawgeti(ptr noundef %102, i32 noundef 1, i32 noundef %104)
  %105 = load ptr, ptr %4, align 8, !tbaa !4
  %106 = call i32 @sort_comp(ptr noundef %105, i32 noundef -3, i32 noundef -1)
  %107 = icmp ne i32 %106, 0
  br i1 %107, label %108, label %116

108:                                              ; preds = %101
  %109 = load i32, ptr %8, align 4, !tbaa !33
  %110 = load i32, ptr %5, align 4, !tbaa !33
  %111 = icmp sle i32 %109, %110
  br i1 %111, label %112, label %114

112:                                              ; preds = %108
  %113 = load ptr, ptr %4, align 8, !tbaa !4
  call void @lj_err_caller(ptr noundef %113, i32 noundef 1496) #8
  unreachable

114:                                              ; preds = %108
  %115 = load ptr, ptr %4, align 8, !tbaa !4
  call void @lua_settop(ptr noundef %115, i32 noundef -2)
  br label %101, !llvm.loop !65

116:                                              ; preds = %101
  %117 = load i32, ptr %8, align 4, !tbaa !33
  %118 = load i32, ptr %7, align 4, !tbaa !33
  %119 = icmp slt i32 %117, %118
  br i1 %119, label %120, label %122

120:                                              ; preds = %116
  %121 = load ptr, ptr %4, align 8, !tbaa !4
  call void @lua_settop(ptr noundef %121, i32 noundef -4)
  br label %126

122:                                              ; preds = %116
  %123 = load ptr, ptr %4, align 8, !tbaa !4
  %124 = load i32, ptr %7, align 4, !tbaa !33
  %125 = load i32, ptr %8, align 4, !tbaa !33
  call void @set2(ptr noundef %123, i32 noundef %124, i32 noundef %125)
  br label %84

126:                                              ; preds = %120
  %127 = load ptr, ptr %4, align 8, !tbaa !4
  %128 = load i32, ptr %6, align 4, !tbaa !33
  %129 = sub nsw i32 %128, 1
  call void @lua_rawgeti(ptr noundef %127, i32 noundef 1, i32 noundef %129)
  %130 = load ptr, ptr %4, align 8, !tbaa !4
  %131 = load i32, ptr %7, align 4, !tbaa !33
  call void @lua_rawgeti(ptr noundef %130, i32 noundef 1, i32 noundef %131)
  %132 = load ptr, ptr %4, align 8, !tbaa !4
  %133 = load i32, ptr %6, align 4, !tbaa !33
  %134 = sub nsw i32 %133, 1
  %135 = load i32, ptr %7, align 4, !tbaa !33
  call void @set2(ptr noundef %132, i32 noundef %134, i32 noundef %135)
  %136 = load i32, ptr %7, align 4, !tbaa !33
  %137 = load i32, ptr %5, align 4, !tbaa !33
  %138 = sub nsw i32 %136, %137
  %139 = load i32, ptr %6, align 4, !tbaa !33
  %140 = load i32, ptr %7, align 4, !tbaa !33
  %141 = sub nsw i32 %139, %140
  %142 = icmp slt i32 %138, %141
  br i1 %142, label %143, label %149

143:                                              ; preds = %126
  %144 = load i32, ptr %5, align 4, !tbaa !33
  store i32 %144, ptr %8, align 4, !tbaa !33
  %145 = load i32, ptr %7, align 4, !tbaa !33
  %146 = sub nsw i32 %145, 1
  store i32 %146, ptr %7, align 4, !tbaa !33
  %147 = load i32, ptr %7, align 4, !tbaa !33
  %148 = add nsw i32 %147, 2
  store i32 %148, ptr %5, align 4, !tbaa !33
  br label %155

149:                                              ; preds = %126
  %150 = load i32, ptr %7, align 4, !tbaa !33
  %151 = add nsw i32 %150, 1
  store i32 %151, ptr %8, align 4, !tbaa !33
  %152 = load i32, ptr %6, align 4, !tbaa !33
  store i32 %152, ptr %7, align 4, !tbaa !33
  %153 = load i32, ptr %8, align 4, !tbaa !33
  %154 = sub nsw i32 %153, 2
  store i32 %154, ptr %6, align 4, !tbaa !33
  br label %155

155:                                              ; preds = %149, %143
  %156 = load ptr, ptr %4, align 8, !tbaa !4
  %157 = load i32, ptr %8, align 4, !tbaa !33
  %158 = load i32, ptr %7, align 4, !tbaa !33
  call void @auxsort(ptr noundef %156, i32 noundef %157, i32 noundef %158)
  store i32 0, ptr %9, align 4
  br label %159

159:                                              ; preds = %155, %69, %33
  call void @llvm.lifetime.end.p0(i64 4, ptr %8) #7
  call void @llvm.lifetime.end.p0(i64 4, ptr %7) #7
  %160 = load i32, ptr %9, align 4
  switch i32 %160, label %163 [
    i32 0, label %161
    i32 3, label %162
  ]

161:                                              ; preds = %159
  br label %10, !llvm.loop !66

162:                                              ; preds = %159, %10
  ret void

163:                                              ; preds = %159
  unreachable
}